; Function Attrs: mustprogress uwtable
define void @_ZN7Imf_3_412addWrapmodesERNS_6HeaderERKNSt7__cxx1112basic_stringIcSt11char_traitsIcESaIcEEE(ptr noundef nonnull align 8 dereferenceable(49) %0, ptr noundef nonnull align 8 dereferenceable(32) %1) local_unnamed_addr #3 personality ptr @__gxx_personality_v0 {
  %3 = alloca %"class.Imf_3_4::TypedAttribute.4", align 8
  call void @llvm.lifetime.start.p0(i64 40, ptr nonnull %3) #11
  call void @_ZN7Imf_3_414TypedAttributeINSt7__cxx1112basic_stringIcSt11char_traitsIcESaIcEEEEC1ERKS6_(ptr noundef nonnull align 8 dereferenceable(40) %3, ptr noundef nonnull align 8 dereferenceable(32) %1)
  invoke void @_ZN7Imf_3_46Header6insertEPKcRKNS_9AttributeE(ptr noundef nonnull align 8 dereferenceable(49) %0, ptr noundef nonnull @.str.51, ptr noundef nonnull align 8 dereferenceable(8) %3)
          to label %4 unwind label %5

4:                                                ; preds = %2
  call void @_ZN7Imf_3_414TypedAttributeINSt7__cxx1112basic_stringIcSt11char_traitsIcESaIcEEEED1Ev(ptr noundef nonnull align 8 dereferenceable(40) %3) #11
  call void @llvm.lifetime.end.p0(i64 40, ptr nonnull %3) #11
  ret void

5:                                                ; preds = %2
  %6 = landingpad { ptr, i32 }
          cleanup
  call void @_ZN7Imf_3_414TypedAttributeINSt7__cxx1112basic_stringIcSt11char_traitsIcESaIcEEEED1Ev(ptr noundef nonnull align 8 dereferenceable(40) %3) #11
  call void @llvm.lifetime.end.p0(i64 40, ptr nonnull %3) #11
  resume { ptr, i32 } %6
}